; Function Attrs: nounwind uwtable
define void @Gia_ManFindUnatePairs(ptr noundef readonly captures(none) %0, ptr noundef readonly captures(none) %1, i32 noundef %2, ptr noundef readonly captures(none) %3, ptr noundef readonly captures(none) %4, i32 noundef %5) local_unnamed_addr #0 {
  %.not = icmp eq i32 %5, 0
  br i1 %.not, label %.split.us, label %7

7:                                                ; preds = %6
  %8 = tail call i32 (ptr, ...) @printf(ptr noundef nonnull dereferenceable(1) @.str.19)
  br label %.split

.split.us:                                        ; preds = %6
  %9 = load ptr, ptr %4, align 8, !tbaa !69
  %10 = load ptr, ptr %0, align 8, !tbaa !78
  %11 = getelementptr inbounds nuw i8, ptr %0, i64 8
  %12 = load ptr, ptr %11, align 8, !tbaa !78
  tail call void @Gia_ManFindUnatePairsInt(ptr noundef %10, ptr noundef %12, ptr noundef %3, ptr noundef %1, i32 noundef %2, ptr noundef %9)
  %13 = getelementptr inbounds nuw i8, ptr %4, i64 8
  %14 = load ptr, ptr %13, align 8, !tbaa !69
  %15 = getelementptr inbounds nuw i8, ptr %0, i64 8
  %16 = load ptr, ptr %15, align 8, !tbaa !78
  %17 = load ptr, ptr %0, align 8, !tbaa !78
  tail call void @Gia_ManFindUnatePairsInt(ptr noundef %16, ptr noundef %17, ptr noundef %3, ptr noundef %1, i32 noundef %2, ptr noundef %14)
  br label %.split26.us

.split:                                           ; preds = %7, %.split
  %18 = phi i1 [ true, %7 ], [ false, %.split ]
  %indvars.iv = phi i64 [ 0, %7 ], [ 1, %.split ]
  %19 = getelementptr inbounds nuw ptr, ptr %4, i64 %indvars.iv
  %20 = load ptr, ptr %19, align 8, !tbaa !69
  %21 = getelementptr i8, ptr %20, i64 4
  %.val22 = load i32, ptr %21, align 4, !tbaa !28
  %22 = getelementptr inbounds nuw ptr, ptr %0, i64 %indvars.iv
  %23 = load ptr, ptr %22, align 8, !tbaa !78
  %24 = trunc nuw nsw i64 %indvars.iv to i32
  %25 = xor i64 %indvars.iv, 1
  %26 = getelementptr inbounds nuw ptr, ptr %0, i64 %25
  %27 = load ptr, ptr %26, align 8, !tbaa !78
  tail call void @Gia_ManFindUnatePairsInt(ptr noundef %23, ptr noundef %27, ptr noundef %3, ptr noundef %1, i32 noundef %2, ptr noundef %20)
  %28 = load ptr, ptr %19, align 8, !tbaa !69
  %29 = getelementptr i8, ptr %28, i64 4
  %.val = load i32, ptr %29, align 4, !tbaa !28
  %30 = sub nsw i32 %.val, %.val22
  %31 = tail call i32 (ptr, ...) @printf(ptr noundef nonnull dereferenceable(1) @.str.23, i32 noundef %24, i32 noundef %30)
  br i1 %18, label %.split, label %.split26.us, !llvm.loop !157

.split26.us:                                      ; preds = %.split, %.split.us
  %32 = load ptr, ptr %4, align 8, !tbaa !69
  %33 = getelementptr inbounds nuw i8, ptr %4, i64 8
  %34 = load ptr, ptr %33, align 8, !tbaa !69
  %35 = getelementptr inbounds nuw i8, ptr %32, i64 8
  %36 = load ptr, ptr %35, align 8, !tbaa !30
  %37 = getelementptr inbounds nuw i8, ptr %34, i64 8
  %38 = load ptr, ptr %37, align 8, !tbaa !30
  %39 = getelementptr inbounds nuw i8, ptr %32, i64 4
  %40 = load i32, ptr %39, align 4, !tbaa !28
  %41 = sext i32 %40 to i64
  %42 = getelementptr inbounds i32, ptr %36, i64 %41
  %43 = getelementptr inbounds nuw i8, ptr %34, i64 4
  %44 = load i32, ptr %43, align 4, !tbaa !28
  %45 = sext i32 %44 to i64
  %46 = getelementptr inbounds i32, ptr %38, i64 %45
  %47 = icmp sgt i32 %40, 0
  %48 = icmp sgt i32 %44, 0
  %49 = select i1 %47, i1 %48, i1 false
  br i1 %49, label %.lr.ph.i, label %.preheader55.i

.preheader55.i:                                   ; preds = %66, %.split26.us
  %.049.lcssa.i = phi ptr [ %38, %.split26.us ], [ %.150.i, %66 ]
  %.046.lcssa.i = phi ptr [ %36, %.split26.us ], [ %.147.i, %66 ]
  %.042.lcssa.i = phi ptr [ %36, %.split26.us ], [ %.143.i, %66 ]
  %.040.lcssa.i = phi ptr [ %38, %.split26.us ], [ %.141.i, %66 ]
  %50 = icmp ult ptr %.046.lcssa.i, %42
  br i1 %50, label %.lr.ph70.i, label %.preheader.i

.lr.ph.i:                                         ; preds = %.split26.us, %66
  %.04063.i = phi ptr [ %.141.i, %66 ], [ %38, %.split26.us ]
  %.04262.i = phi ptr [ %.143.i, %66 ], [ %36, %.split26.us ]
  %.04661.i = phi ptr [ %.147.i, %66 ], [ %36, %.split26.us ]
  %.04960.i = phi ptr [ %.150.i, %66 ], [ %38, %.split26.us ]
  %51 = load i32, ptr %.04661.i, align 4, !tbaa !31
  %52 = load i32, ptr %.04960.i, align 4, !tbaa !31
  %.unshifted.i = xor i32 %52, %51
  %53 = icmp ult i32 %.unshifted.i, 2
  br i1 %53, label %54, label %58

54:                                               ; preds = %.lr.ph.i
  %.not.i = icmp eq i32 %51, %52
  br i1 %.not.i, label %55, label %Gia_ManFindFirstCommonLit.exit

55:                                               ; preds = %54
  %56 = getelementptr inbounds nuw i8, ptr %.04661.i, i64 4
  %57 = getelementptr inbounds nuw i8, ptr %.04960.i, i64 4
  br label %66

58:                                               ; preds = %.lr.ph.i
  %59 = icmp slt i32 %51, %52
  br i1 %59, label %60, label %63

60:                                               ; preds = %58
  %61 = getelementptr inbounds nuw i8, ptr %.04661.i, i64 4
  %62 = getelementptr inbounds nuw i8, ptr %.04262.i, i64 4
  store i32 %51, ptr %.04262.i, align 4, !tbaa !31
  br label %66

63:                                               ; preds = %58
  %64 = getelementptr inbounds nuw i8, ptr %.04960.i, i64 4
  %65 = getelementptr inbounds nuw i8, ptr %.04063.i, i64 4
  store i32 %52, ptr %.04063.i, align 4, !tbaa !31
  br label %66

66:                                               ; preds = %63, %60, %55
  %.150.i = phi ptr [ %57, %55 ], [ %.04960.i, %60 ], [ %64, %63 ]
  %.147.i = phi ptr [ %56, %55 ], [ %61, %60 ], [ %.04661.i, %63 ]
  %.143.i = phi ptr [ %.04262.i, %55 ], [ %62, %60 ], [ %.04262.i, %63 ]
  %.141.i = phi ptr [ %.04063.i, %55 ], [ %.04063.i, %60 ], [ %65, %63 ]
  %67 = icmp ult ptr %.147.i, %42
  %68 = icmp ult ptr %.150.i, %46
  %69 = select i1 %67, i1 %68, i1 false
  br i1 %69, label %.lr.ph.i, label %.preheader55.i, !llvm.loop !138

.preheader.i:                                     ; preds = %.lr.ph70.i, %.preheader55.i
  %.244.lcssa.i = phi ptr [ %.042.lcssa.i, %.preheader55.i ], [ %73, %.lr.ph70.i ]
  %70 = icmp ult ptr %.049.lcssa.i, %46
  br i1 %70, label %.lr.ph74.i, label %._crit_edge.i

.lr.ph70.i:                                       ; preds = %.preheader55.i, %.lr.ph70.i
  %.24469.i = phi ptr [ %73, %.lr.ph70.i ], [ %.042.lcssa.i, %.preheader55.i ]
  %.24868.i = phi ptr [ %71, %.lr.ph70.i ], [ %.046.lcssa.i, %.preheader55.i ]
  %71 = getelementptr inbounds nuw i8, ptr %.24868.i, i64 4
  %72 = load i32, ptr %.24868.i, align 4, !tbaa !31
  %73 = getelementptr inbounds nuw i8, ptr %.24469.i, i64 4
  store i32 %72, ptr %.24469.i, align 4, !tbaa !31
  %74 = icmp ult ptr %71, %42
  br i1 %74, label %.lr.ph70.i, label %.preheader.i, !llvm.loop !139

.lr.ph74.i:                                       ; preds = %.preheader.i, %.lr.ph74.i
  %.273.i = phi ptr [ %77, %.lr.ph74.i ], [ %.040.lcssa.i, %.preheader.i ]
  %.25172.i = phi ptr [ %75, %.lr.ph74.i ], [ %.049.lcssa.i, %.preheader.i ]
  %75 = getelementptr inbounds nuw i8, ptr %.25172.i, i64 4
  %76 = load i32, ptr %.25172.i, align 4, !tbaa !31
  %77 = getelementptr inbounds nuw i8, ptr %.273.i, i64 4
  store i32 %76, ptr %.273.i, align 4, !tbaa !31
  %78 = icmp ult ptr %75, %46
  br i1 %78, label %.lr.ph74.i, label %._crit_edge.i, !llvm.loop !140

._crit_edge.i:                                    ; preds = %.lr.ph74.i, %.preheader.i
  %.2.lcssa.i = phi ptr [ %.040.lcssa.i, %.preheader.i ], [ %77, %.lr.ph74.i ]
  %79 = ptrtoint ptr %.244.lcssa.i to i64
  %80 = ptrtoint ptr %36 to i64
  %81 = sub i64 %79, %80
  %82 = lshr exact i64 %81, 2
  %83 = trunc i64 %82 to i32
  store i32 %83, ptr %39, align 4, !tbaa !28
  %84 = ptrtoint ptr %.2.lcssa.i to i64
  %85 = ptrtoint ptr %38 to i64
  %86 = sub i64 %84, %85
  %87 = lshr exact i64 %86, 2
  %88 = trunc i64 %87 to i32
  store i32 %88, ptr %43, align 4, !tbaa !28
  br label %Gia_ManFindFirstCommonLit.exit

Gia_ManFindFirstCommonLit.exit:                   ; preds = %54, %._crit_edge.i
  ret void
}